target datalayout = "e-m:e-p270:32:32-p271:32:32-p272:64:64-i64:64-i128:128-f80:128-n8:16:32:64-S128"
target triple = "x86_64-pc-linux-gnu"

%struct.luaL_Buffer = type { ptr, i32, ptr, [8192 x i8] }

@.str.18 = private unnamed_addr constant [30 x i8] c"unable to dump given function\00", align 1

; Function Attrs: nounwind uwtable
define internal i32 @str_dump(ptr noundef %0) #0 {
  %2 = alloca ptr, align 8
  %3 = alloca %struct.luaL_Buffer, align 8
  store ptr %0, ptr %2, align 8, !tbaa !4
  call void @llvm.lifetime.start.p0(i64 8216, ptr %3) #8
  %4 = load ptr, ptr %2, align 8, !tbaa !4
  call void @luaL_checktype(ptr noundef %4, i32 noundef 1, i32 noundef 6)
  %5 = load ptr, ptr %2, align 8, !tbaa !4
  call void @lua_settop(ptr noundef %5, i32 noundef 1)
  %6 = load ptr, ptr %2, align 8, !tbaa !4
  call void @luaL_buffinit(ptr noundef %6, ptr noundef %3)
  %7 = load ptr, ptr %2, align 8, !tbaa !4
  %8 = call i32 @lua_dump(ptr noundef %7, ptr noundef @writer, ptr noundef %3)
  %9 = icmp ne i32 %8, 0
  br i1 %9, label %10, label %13

10:                                               ; preds = %1
  %11 = load ptr, ptr %2, align 8, !tbaa !4
  %12 = call i32 (ptr, ptr, ...) @luaL_error(ptr noundef %11, ptr noundef @.str.18)
  br label %13

13:                                               ; preds = %10, %1
  call void @luaL_pushresult(ptr noundef %3)
  call void @llvm.lifetime.end.p0(i64 8216, ptr %3) #8
  ret i32 1
}