; Function Attrs: nounwind uwtable
define internal noundef i32 @str_dump(ptr noundef %0) #0 {
  %2 = alloca %struct.luaL_Buffer, align 8
  call void @llvm.lifetime.start.p0(i64 8216, ptr nonnull %2) #10
  tail call void @luaL_checktype(ptr noundef %0, i32 noundef 1, i32 noundef 6) #10
  tail call void @lua_settop(ptr noundef %0, i32 noundef 1) #10
  call void @luaL_buffinit(ptr noundef %0, ptr noundef nonnull %2) #10
  %3 = call i32 @lua_dump(ptr noundef %0, ptr noundef nonnull @writer, ptr noundef nonnull %2) #10
  %.not = icmp eq i32 %3, 0
  br i1 %.not, label %6, label %4

4:                                                ; preds = %1
  %5 = call i32 (ptr, ptr, ...) @luaL_error(ptr noundef %0, ptr noundef nonnull @.str.18) #10
  br label %6

6:                                                ; preds = %4, %1
  call void @luaL_pushresult(ptr noundef nonnull %2) #10
  call void @llvm.lifetime.end.p0(i64 8216, ptr nonnull %2) #10
  ret i32 1
}